target datalayout = "e-m:e-p270:32:32-p271:32:32-p272:64:64-i64:64-i128:128-f80:128-n8:16:32:64-S128"
target triple = "x86_64-pc-linux-gnu"

%struct.CRYPTO_REF_COUNT = type { i32 }
%struct.crypto_ex_data_st = type { ptr, ptr }
%struct.OSSL_TIME = type { i64 }
%struct.ssl_session_st = type { i32, i64, [64 x i8], [512 x i8], i64, [32 x i8], i64, [32 x i8], ptr, ptr, i32, ptr, ptr, ptr, i64, %struct.OSSL_TIME, %struct.OSSL_TIME, %struct.OSSL_TIME, i32, ptr, i64, i32, %struct.crypto_ex_data_st, %struct.anon.3, ptr, ptr, i64, i32, ptr, ptr, ptr, %struct.CRYPTO_REF_COUNT }
%struct.anon.3 = type { ptr, ptr, i64, i64, i32, i32, ptr, i64, i8 }
%struct.ossl_param_st = type { ptr, i32, ptr, i64, i64 }

@.str.1 = private unnamed_addr constant [8 x i8] c"ssl3-ms\00", align 1

; Function Attrs: nounwind uwtable
define void @ssl3_digest_master_key_set_params(ptr noundef %0, ptr noundef %1) #0 {
  %3 = alloca ptr, align 8
  %4 = alloca ptr, align 8
  %5 = alloca i32, align 4
  %6 = alloca %struct.ossl_param_st, align 8
  %7 = alloca %struct.ossl_param_st, align 8
  store ptr %0, ptr %3, align 8, !tbaa !110
  store ptr %1, ptr %4, align 8, !tbaa !111
  call void @llvm.lifetime.start.p0(i64 4, ptr %5) #7
  store i32 0, ptr %5, align 4, !tbaa !8
  %8 = load ptr, ptr %4, align 8, !tbaa !111
  %9 = load i32, ptr %5, align 4, !tbaa !8
  %10 = add nsw i32 %9, 1
  store i32 %10, ptr %5, align 4, !tbaa !8
  %11 = sext i32 %9 to i64
  %12 = getelementptr inbounds %struct.ossl_param_st, ptr %8, i64 %11
  call void @llvm.lifetime.start.p0(i64 40, ptr %6) #7
  %13 = load ptr, ptr %3, align 8, !tbaa !110
  %14 = getelementptr inbounds nuw %struct.ssl_session_st, ptr %13, i32 0, i32 3
  %15 = getelementptr inbounds [512 x i8], ptr %14, i64 0, i64 0
  %16 = load ptr, ptr %3, align 8, !tbaa !110
  %17 = getelementptr inbounds nuw %struct.ssl_session_st, ptr %16, i32 0, i32 1
  %18 = load i64, ptr %17, align 8, !tbaa !101
  call void @OSSL_PARAM_construct_octet_string(ptr dead_on_unwind writable sret(%struct.ossl_param_st) align 8 %6, ptr noundef @.str.1, ptr noundef %15, i64 noundef %18)
  call void @llvm.memcpy.p0.p0.i64(ptr align 8 %12, ptr align 8 %6, i64 40, i1 false), !tbaa.struct !113
  call void @llvm.lifetime.end.p0(i64 40, ptr %6) #7
  %19 = load ptr, ptr %4, align 8, !tbaa !111
  %20 = load i32, ptr %5, align 4, !tbaa !8
  %21 = add nsw i32 %20, 1
  store i32 %21, ptr %5, align 4, !tbaa !8
  %22 = sext i32 %20 to i64
  %23 = getelementptr inbounds %struct.ossl_param_st, ptr %19, i64 %22
  call void @llvm.lifetime.start.p0(i64 40, ptr %7) #7
  call void @OSSL_PARAM_construct_end(ptr dead_on_unwind writable sret(%struct.ossl_param_st) align 8 %7)
  call void @llvm.memcpy.p0.p0.i64(ptr align 8 %23, ptr align 8 %7, i64 40, i1 false), !tbaa.struct !113
  call void @llvm.lifetime.end.p0(i64 40, ptr %7) #7
  call void @llvm.lifetime.end.p0(i64 4, ptr %5) #7
  ret void
}