; Function Attrs: nounwind uwtable
define void @ssl3_digest_master_key_set_params(ptr noundef %0, ptr noundef writeonly captures(none) initializes((0, 80)) %1) local_unnamed_addr #0 {
  %3 = alloca %struct.ossl_param_st, align 8
  %4 = alloca %struct.ossl_param_st, align 8
  call void @llvm.lifetime.start.p0(i64 40, ptr nonnull %3) #8
  %5 = getelementptr inbounds nuw i8, ptr %0, i64 80
  %6 = getelementptr inbounds nuw i8, ptr %0, i64 8
  %7 = load i64, ptr %6, align 8, !tbaa !95
  call void @OSSL_PARAM_construct_octet_string(ptr dead_on_unwind nonnull writable sret(%struct.ossl_param_st) align 8 %3, ptr noundef nonnull @.str.1, ptr noundef nonnull %5, i64 noundef %7) #8
  call void @llvm.memcpy.p0.p0.i64(ptr noundef nonnull align 8 dereferenceable(40) %1, ptr noundef nonnull align 8 dereferenceable(40) %3, i64 40, i1 false), !tbaa.struct !103
  call void @llvm.lifetime.end.p0(i64 40, ptr nonnull %3) #8
  %8 = getelementptr inbounds nuw i8, ptr %1, i64 40
  call void @llvm.lifetime.start.p0(i64 40, ptr nonnull %4) #8
  call void @OSSL_PARAM_construct_end(ptr dead_on_unwind nonnull writable sret(%struct.ossl_param_st) align 8 %4) #8
  call void @llvm.memcpy.p0.p0.i64(ptr noundef nonnull align 8 dereferenceable(40) %8, ptr noundef nonnull align 8 dereferenceable(40) %4, i64 40, i1 false), !tbaa.struct !103
  call void @llvm.lifetime.end.p0(i64 40, ptr nonnull %4) #8
  ret void
}